; Function Attrs: mustprogress uwtable
define void @_ZN10open_spiel4file20ReadContentsFromFileERKNSt7__cxx1112basic_stringIcSt11char_traitsIcESaIcEEES8_(ptr dead_on_unwind noalias writable sret(%"class.std::__cxx11::basic_string") align 8 %0, ptr noundef nonnull align 8 dereferenceable(32) %1, ptr noundef nonnull align 8 dereferenceable(32) %2) local_unnamed_addr #3 personality ptr @__gxx_personality_v0 {
  %4 = alloca %"class.open_spiel::file::File", align 8
  call void @_ZN10open_spiel4file4FileC1ERKNSt7__cxx1112basic_stringIcSt11char_traitsIcESaIcEEES9_(ptr noundef nonnull align 8 dereferenceable(8) %4, ptr noundef nonnull align 8 dereferenceable(32) %1, ptr noundef nonnull align 8 dereferenceable(32) %2)
  %5 = load ptr, ptr %4, align 8, !noalias !4
  %6 = call i32 @fseek(ptr noundef %5, i64 noundef 0, i32 noundef 0), !noalias !4
  %7 = load ptr, ptr %4, align 8, !noalias !4
  %8 = call i64 @ftell(ptr noundef %7), !noalias !4
  %9 = load ptr, ptr %4, align 8, !noalias !4
  %10 = call i32 @fseek(ptr noundef %9, i64 noundef 0, i32 noundef 2), !noalias !4
  %11 = load ptr, ptr %4, align 8, !noalias !4
  %12 = call i64 @ftell(ptr noundef %11), !noalias !4
  %13 = load ptr, ptr %4, align 8, !noalias !4
  %14 = call i32 @fseek(ptr noundef %13, i64 noundef %8, i32 noundef 0), !noalias !4
  invoke void @_ZN10open_spiel4file4File4ReadB5cxx11El(ptr dead_on_unwind writable sret(%"class.std::__cxx11::basic_string") align 8 %0, ptr noundef nonnull readonly align 8 dereferenceable(8) %4, i64 noundef %12)
          to label %_ZN10open_spiel4file4File12ReadContentsB5cxx11Ev.exit unwind label %15

_ZN10open_spiel4file4File12ReadContentsB5cxx11Ev.exit: ; preds = %3
  call void @_ZN10open_spiel4file4FileD1Ev(ptr noundef nonnull align 8 dereferenceable(8) %4) #17
  ret void

15:                                               ; preds = %3
  %16 = landingpad { ptr, i32 }
          cleanup
  call void @_ZN10open_spiel4file4FileD1Ev(ptr noundef nonnull align 8 dereferenceable(8) %4) #17
  resume { ptr, i32 } %16
}